(lp1
S"i'm"
p2
aS'want'
p3
aVhow
p4
aS'right'
p5
aS'people'
p6
aVtime
p7
aS'love'
p8
aVso
p9
aS'one'
p10
aS'take'
p11
aS'going'
p12
aVcan't
p13
aVher
p14
aS'at'
p15
aVreally
p16
aS'see'
p17
aVgonna
p18
aS'be'
p19
aS'up'
p20
aVlet
p21
aS'they'
p22
aVgood
p23
aVdo
p24
aVwe
p25
aS'was'
p26
aVcan
p27
aS'still'
p28
aVnot
p29
aS'now'
p30
aVthat
p31
aS'lol'
p32
aS"i'll"
p33
aS'some'
p34
aS'go'
p35
aS"you're"
p36
aS'need'
p37
aS'he'
p38
aS'even'
p39
aS'never'
p40
aVis
p41
aVit
p42
aS'if'
p43
aS'make'
p44
aS'just'
p45
aS'shit'
p46
aS'think'
p47
aVget
p48
aS'u'
aVthat's
p49
aVsomeone
p50
aVfrom
p51
aS'back'
p52
aS'have'
p53
aS'with'
p54
aVit's
p55
aVlike
p56
aV&amp;
p57
aS'about'
p58
aS'but'
p59
aS'hate'
p60
aS'@'
aVwould
p61
aVgot
p62
aS'too'
p63
aVbeen
p64
aVno
p65
aS'she'
p66
aS'when'
p67
aValways
p68
aS'on'
p69
aS'or'
p70
aS'all'
p71
aS'what'
p72
aS"don't"
p73
aVfeel
p74
aS'are'
p75
aS'wanna'
p76
aS'out'
p77
aS'who'
p78
aVwhy
p79
aS'will'
p80
aVknow
p81
a.